#include <math.h>
#include <stdio.h>
#include <stdlib.h>
#include <string.h>

int main()
{
	int n,i,j,a[100][100],p,q,r,s,mj;
	scanf("%d",&n);
	for(i=0;i<n;i++)
		for(j=0;j<n;j++)
			scanf("%d",&a[i][j]);
	for(i=0;i<n;i++)
		for(j=0;j<n;j++)
		{
			if(a[i][j]==0&&a[i][j+1]==0&&a[i+1][j]==0&&a[i+1][j+1]!=0)
			{
				p=j;
				q=i;
			}
			if(a[i][j]==0&&a[i-1][j]==0&&a[i][j-1]==0&&a[i-1][j-1]!=0)
			{
				r=i;
				s=j;
			}
		}
		mj=(r-p-1)*(s-q-1);
		printf("%d",mj);
		return 0;
}